target datalayout = "e-m:e-p270:32:32-p271:32:32-p272:64:64-i64:64-i128:128-f80:128-n8:16:32:64-S128"
target triple = "x86_64-unknown-linux-gnu"

@.str.1 = private unnamed_addr constant [25 x i8] c"../qemu/net/vhost-vdpa.c\00", align 1
@.str.17 = private unnamed_addr constant [12 x i8] c"virtio-net-\00", align 1
@__func__.vhost_vdpa_check_peer_type = private unnamed_addr constant [27 x i8] c"vhost_vdpa_check_peer_type\00", align 1
@.str.18 = private unnamed_addr constant [49 x i8] c"vhost-vdpa requires frontend driver virtio-net-*\00", align 1

; Function Attrs: nounwind sspstrong uwtable
define internal zeroext i1 @vhost_vdpa_check_peer_type(ptr noundef %nc, ptr noundef %oc, ptr noundef %errp) #0 {
entry:
  %retval = alloca i1, align 1
  %nc.addr = alloca ptr, align 8
  %oc.addr = alloca ptr, align 8
  %errp.addr = alloca ptr, align 8
  %driver = alloca ptr, align 8
  store ptr %nc, ptr %nc.addr, align 8
  store ptr %oc, ptr %oc.addr, align 8
  store ptr %errp, ptr %errp.addr, align 8
  %0 = load ptr, ptr %oc.addr, align 8
  %call = call ptr @object_class_get_name(ptr noundef %0)
  store ptr %call, ptr %driver, align 8
  %1 = load ptr, ptr %driver, align 8
  %call1 = call i32 @g_str_has_prefix(ptr noundef %1, ptr noundef @.str.17)
  %tobool = icmp ne i32 %call1, 0
  br i1 %tobool, label %if.end, label %if.then

if.then:                                          ; preds = %entry
  %2 = load ptr, ptr %errp.addr, align 8
  call void (ptr, ptr, i32, ptr, ptr, ...) @error_setg_internal(ptr noundef %2, ptr noundef @.str.1, i32 noundef 275, ptr noundef @__func__.vhost_vdpa_check_peer_type, ptr noundef @.str.18)
  store i1 false, ptr %retval, align 1
  br label %return

if.end:                                           ; preds = %entry
  store i1 true, ptr %retval, align 1
  br label %return

return:                                           ; preds = %if.end, %if.then
  %3 = load i1, ptr %retval, align 1
  ret i1 %3
}